target datalayout = "e-m:e-p270:32:32-p271:32:32-p272:64:64-i64:64-i128:128-f80:128-n8:16:32:64-S128"
target triple = "x86_64-pc-linux-gnu"

%struct.RMStream = type { %struct.AVPacket, i32, i32, i32, i32, i32, i64, i64, i32, i32, i32, i32, i32, [16 x i32], i32 }
%struct.AVPacket = type { ptr, i64, i64, ptr, i32, i32, i32, ptr, i32, i64, i64, ptr, ptr, %struct.AVRational }
%struct.AVRational = type { i32, i32 }
%struct.AVStream = type { ptr, i32, i32, ptr, ptr, %struct.AVRational, i64, i64, i64, i32, i32, %struct.AVRational, ptr, %struct.AVRational, %struct.AVPacket, i32, %struct.AVRational, i32 }
%struct.AVFormatContext = type { ptr, ptr, ptr, ptr, ptr, i32, i32, ptr, i32, ptr, i32, ptr, ptr, i64, i64, i64, i32, i32, i32, i64, i64, ptr, i32, i32, ptr, i32, i32, i32, i32, ptr, i64, i32, i32, %struct.AVIOInterruptCB, i32, i32, i32, i32, i64, i32, i32, i32, i32, i32, i32, i32, i32, i32, i32, i32, i32, i64, i32, i32, i32, i32, i32, ptr, ptr, ptr, ptr, i32, ptr, ptr, ptr, ptr, i32, ptr, ptr, i64, ptr, ptr, ptr, i64 }
%struct.AVIOInterruptCB = type { ptr, ptr }
%struct.RMDemuxContext = type { i32, i32, i32, i32, i32, i32, i32 }

; Function Attrs: alwaysinline nounwind uwtable
define internal i64 @avio_tell(ptr noundef %0) #3 {
  %2 = alloca ptr, align 8
  store ptr %0, ptr %2, align 8, !tbaa !20
  %3 = load ptr, ptr %2, align 8, !tbaa !20
  %4 = call i64 @avio_seek(ptr noundef %3, i64 noundef 0, i32 noundef 1)
  ret i64 %4
}

; Function Attrs: nounwind uwtable
define internal i32 @rm_read_packet(ptr noundef %0, ptr noundef %1) #0 {
  %3 = alloca i32, align 4
  %4 = alloca ptr, align 8
  %5 = alloca ptr, align 8
  %6 = alloca ptr, align 8
  %7 = alloca ptr, align 8
  %8 = alloca i32, align 4
  %9 = alloca i32, align 4
  %10 = alloca i32, align 4
  %11 = alloca i64, align 8
  %12 = alloca i64, align 8
  %13 = alloca i64, align 8
  %14 = alloca i32, align 4
  %15 = alloca i32, align 4
  %16 = alloca ptr, align 8
  store ptr %0, ptr %4, align 8, !tbaa !18
  store ptr %1, ptr %5, align 8, !tbaa !85
  call void @llvm.lifetime.start.p0(i64 8, ptr %6) #10
  %17 = load ptr, ptr %4, align 8, !tbaa !18
  %18 = getelementptr inbounds nuw %struct.AVFormatContext, ptr %17, i32 0, i32 3
  %19 = load ptr, ptr %18, align 8, !tbaa !89
  store ptr %19, ptr %6, align 8, !tbaa !90
  call void @llvm.lifetime.start.p0(i64 8, ptr %7) #10
  store ptr null, ptr %7, align 8, !tbaa !22
  call void @llvm.lifetime.start.p0(i64 4, ptr %8) #10
  call void @llvm.lifetime.start.p0(i64 4, ptr %9) #10
  call void @llvm.lifetime.start.p0(i64 4, ptr %10) #10
  store i32 1, ptr %10, align 4, !tbaa !24
  call void @llvm.lifetime.start.p0(i64 8, ptr %11) #10
  call void @llvm.lifetime.start.p0(i64 8, ptr %12) #10
  call void @llvm.lifetime.start.p0(i64 8, ptr %13) #10
  call void @llvm.lifetime.start.p0(i64 4, ptr %14) #10
  br label %20

20:                                               ; preds = %177, %158, %2
  %21 = load ptr, ptr %6, align 8, !tbaa !90
  %22 = getelementptr inbounds nuw %struct.RMDemuxContext, ptr %21, i32 0, i32 5
  %23 = load i32, ptr %22, align 4, !tbaa !102
  %24 = icmp ne i32 %23, 0
  br i1 %24, label %25, label %50

25:                                               ; preds = %20
  %26 = load ptr, ptr %4, align 8, !tbaa !18
  %27 = getelementptr inbounds nuw %struct.AVFormatContext, ptr %26, i32 0, i32 7
  %28 = load ptr, ptr %27, align 8, !tbaa !131
  %29 = load ptr, ptr %6, align 8, !tbaa !90
  %30 = getelementptr inbounds nuw %struct.RMDemuxContext, ptr %29, i32 0, i32 4
  %31 = load i32, ptr %30, align 4, !tbaa !101
  %32 = sext i32 %31 to i64
  %33 = getelementptr inbounds ptr, ptr %28, i64 %32
  %34 = load ptr, ptr %33, align 8, !tbaa !22
  store ptr %34, ptr %7, align 8, !tbaa !22
  %35 = load ptr, ptr %4, align 8, !tbaa !18
  %36 = load ptr, ptr %4, align 8, !tbaa !18
  %37 = getelementptr inbounds nuw %struct.AVFormatContext, ptr %36, i32 0, i32 4
  %38 = load ptr, ptr %37, align 8, !tbaa !122
  %39 = load ptr, ptr %7, align 8, !tbaa !22
  %40 = load ptr, ptr %7, align 8, !tbaa !22
  %41 = getelementptr inbounds nuw %struct.AVStream, ptr %40, i32 0, i32 4
  %42 = load ptr, ptr %41, align 8, !tbaa !126
  %43 = load ptr, ptr %5, align 8, !tbaa !85
  %44 = call i32 @ff_rm_retrieve_cache(ptr noundef %35, ptr noundef %38, ptr noundef %39, ptr noundef %42, ptr noundef %43)
  store i32 %44, ptr %9, align 4, !tbaa !24
  %45 = load i32, ptr %9, align 4, !tbaa !24
  %46 = icmp slt i32 %45, 0
  br i1 %46, label %47, label %49

47:                                               ; preds = %25
  %48 = load i32, ptr %9, align 4, !tbaa !24
  store i32 %48, ptr %3, align 4
  store i32 1, ptr %15, align 4
  br label %179

49:                                               ; preds = %25
  store i32 0, ptr %14, align 4, !tbaa !24
  br label %160

50:                                               ; preds = %20
  %51 = load ptr, ptr %6, align 8, !tbaa !90
  %52 = getelementptr inbounds nuw %struct.RMDemuxContext, ptr %51, i32 0, i32 1
  %53 = load i32, ptr %52, align 4, !tbaa !132
  %54 = icmp ne i32 %53, 0
  br i1 %54, label %55, label %97

55:                                               ; preds = %50
  call void @llvm.lifetime.start.p0(i64 8, ptr %16) #10
  %56 = load ptr, ptr %4, align 8, !tbaa !18
  %57 = getelementptr inbounds nuw %struct.AVFormatContext, ptr %56, i32 0, i32 7
  %58 = load ptr, ptr %57, align 8, !tbaa !131
  %59 = getelementptr inbounds ptr, ptr %58, i64 0
  %60 = load ptr, ptr %59, align 8, !tbaa !22
  store ptr %60, ptr %7, align 8, !tbaa !22
  %61 = load ptr, ptr %7, align 8, !tbaa !22
  %62 = getelementptr inbounds nuw %struct.AVStream, ptr %61, i32 0, i32 4
  %63 = load ptr, ptr %62, align 8, !tbaa !126
  store ptr %63, ptr %16, align 8, !tbaa !4
  store i64 -9223372036854775808, ptr %11, align 8, !tbaa !34
  %64 = load ptr, ptr %16, align 8, !tbaa !4
  %65 = getelementptr inbounds nuw %struct.RMStream, ptr %64, i32 0, i32 12
  %66 = load i32, ptr %65, align 8, !tbaa !83
  %67 = icmp ne i32 %66, 0
  br i1 %67, label %69, label %68

68:                                               ; preds = %55
  br label %80

69:                                               ; preds = %55
  %70 = load ptr, ptr %16, align 8, !tbaa !4
  %71 = getelementptr inbounds nuw %struct.RMStream, ptr %70, i32 0, i32 11
  %72 = load i32, ptr %71, align 4, !tbaa !77
  %73 = sext i32 %72 to i64
  %74 = load ptr, ptr %16, align 8, !tbaa !4
  %75 = getelementptr inbounds nuw %struct.RMStream, ptr %74, i32 0, i32 10
  %76 = load i32, ptr %75, align 8, !tbaa !78
  %77 = sext i32 %76 to i64
  %78 = mul nsw i64 %73, %77
  %79 = sdiv i64 %78, 2
  br label %80

80:                                               ; preds = %69, %68
  %81 = phi i64 [ 1000, %68 ], [ %79, %69 ]
  store i64 %81, ptr %13, align 8, !tbaa !34
  %82 = load i64, ptr %13, align 8, !tbaa !34
  %83 = icmp sgt i64 %82, 2147483647
  br i1 %83, label %84, label %85

84:                                               ; preds = %80
  store i32 -1094995529, ptr %3, align 4
  store i32 1, ptr %15, align 4
  br label %94

85:                                               ; preds = %80
  %86 = load i32, ptr %10, align 4, !tbaa !24
  %87 = add nsw i32 %86, 1
  store i32 %87, ptr %10, align 4, !tbaa !24
  %88 = icmp eq i32 %86, 1
  %89 = select i1 %88, i32 2, i32 0
  store i32 %89, ptr %14, align 4, !tbaa !24
  %90 = load ptr, ptr %4, align 8, !tbaa !18
  %91 = getelementptr inbounds nuw %struct.AVFormatContext, ptr %90, i32 0, i32 4
  %92 = load ptr, ptr %91, align 8, !tbaa !122
  %93 = call i64 @avio_tell(ptr noundef %92)
  store i64 %93, ptr %12, align 8, !tbaa !34
  store i32 0, ptr %15, align 4
  br label %94

94:                                               ; preds = %85, %84
  call void @llvm.lifetime.end.p0(i64 8, ptr %16) #10
  %95 = load i32, ptr %15, align 4
  switch i32 %95, label %179 [
    i32 0, label %96
  ]

96:                                               ; preds = %94
  br label %112

97:                                               ; preds = %50
  %98 = load ptr, ptr %4, align 8, !tbaa !18
  %99 = call i32 @rm_sync(ptr noundef %98, ptr noundef %11, ptr noundef %14, ptr noundef %8, ptr noundef %12)
  %100 = sext i32 %99 to i64
  store i64 %100, ptr %13, align 8, !tbaa !34
  %101 = load i64, ptr %13, align 8, !tbaa !34
  %102 = icmp sgt i64 %101, 0
  br i1 %102, label %103, label %111

103:                                              ; preds = %97
  %104 = load ptr, ptr %4, align 8, !tbaa !18
  %105 = getelementptr inbounds nuw %struct.AVFormatContext, ptr %104, i32 0, i32 7
  %106 = load ptr, ptr %105, align 8, !tbaa !131
  %107 = load i32, ptr %8, align 4, !tbaa !24
  %108 = sext i32 %107 to i64
  %109 = getelementptr inbounds ptr, ptr %106, i64 %108
  %110 = load ptr, ptr %109, align 8, !tbaa !22
  store ptr %110, ptr %7, align 8, !tbaa !22
  br label %111

111:                                              ; preds = %103, %97
  br label %112

112:                                              ; preds = %111, %96
  %113 = load ptr, ptr %4, align 8, !tbaa !18
  %114 = getelementptr inbounds nuw %struct.AVFormatContext, ptr %113, i32 0, i32 4
  %115 = load ptr, ptr %114, align 8, !tbaa !122
  %116 = call i32 @avio_feof(ptr noundef %115)
  %117 = icmp ne i32 %116, 0
  br i1 %117, label %118, label %119

118:                                              ; preds = %112
  store i32 -541478725, ptr %3, align 4
  store i32 1, ptr %15, align 4
  br label %179

119:                                              ; preds = %112
  %120 = load i64, ptr %13, align 8, !tbaa !34
  %121 = icmp sle i64 %120, 0
  br i1 %121, label %122, label %123

122:                                              ; preds = %119
  store i32 -5, ptr %3, align 4
  store i32 1, ptr %15, align 4
  br label %179

123:                                              ; preds = %119
  %124 = load ptr, ptr %4, align 8, !tbaa !18
  %125 = load ptr, ptr %4, align 8, !tbaa !18
  %126 = getelementptr inbounds nuw %struct.AVFormatContext, ptr %125, i32 0, i32 4
  %127 = load ptr, ptr %126, align 8, !tbaa !122
  %128 = load ptr, ptr %7, align 8, !tbaa !22
  %129 = load ptr, ptr %7, align 8, !tbaa !22
  %130 = getelementptr inbounds nuw %struct.AVStream, ptr %129, i32 0, i32 4
  %131 = load ptr, ptr %130, align 8, !tbaa !126
  %132 = load i64, ptr %13, align 8, !tbaa !34
  %133 = trunc i64 %132 to i32
  %134 = load ptr, ptr %5, align 8, !tbaa !85
  %135 = load i32, ptr %14, align 4, !tbaa !24
  %136 = load i64, ptr %11, align 8, !tbaa !34
  %137 = call i32 @ff_rm_parse_packet(ptr noundef %124, ptr noundef %127, ptr noundef %128, ptr noundef %131, i32 noundef %133, ptr noundef %134, ptr noundef %10, i32 noundef %135, i64 noundef %136)
  store i32 %137, ptr %9, align 4, !tbaa !24
  %138 = load i32, ptr %9, align 4, !tbaa !24
  %139 = icmp slt i32 %138, -1
  br i1 %139, label %140, label %142

140:                                              ; preds = %123
  %141 = load i32, ptr %9, align 4, !tbaa !24
  store i32 %141, ptr %3, align 4
  store i32 1, ptr %15, align 4
  br label %179

142:                                              ; preds = %123
  %143 = load i32, ptr %14, align 4, !tbaa !24
  %144 = and i32 %143, 2
  %145 = icmp ne i32 %144, 0
  br i1 %145, label %146, label %155

146:                                              ; preds = %142
  %147 = load i32, ptr %10, align 4, !tbaa !24
  %148 = and i32 %147, 127
  %149 = icmp eq i32 %148, 1
  br i1 %149, label %150, label %155

150:                                              ; preds = %146
  %151 = load ptr, ptr %7, align 8, !tbaa !22
  %152 = load i64, ptr %12, align 8, !tbaa !34
  %153 = load i64, ptr %11, align 8, !tbaa !34
  %154 = call i32 @av_add_index_entry(ptr noundef %151, i64 noundef %152, i64 noundef %153, i32 noundef 0, i32 noundef 0, i32 noundef 1)
  br label %155

155:                                              ; preds = %150, %146, %142
  %156 = load i32, ptr %9, align 4, !tbaa !24
  %157 = icmp ne i32 %156, 0
  br i1 %157, label %158, label %159

158:                                              ; preds = %155
  br label %20

159:                                              ; preds = %155
  br label %160

160:                                              ; preds = %159, %49
  %161 = load ptr, ptr %7, align 8, !tbaa !22
  %162 = getelementptr inbounds nuw %struct.AVStream, ptr %161, i32 0, i32 10
  %163 = load i32, ptr %162, align 4, !tbaa !133
  %164 = icmp sge i32 %163, 32
  br i1 %164, label %165, label %169

165:                                              ; preds = %160
  %166 = load i32, ptr %14, align 4, !tbaa !24
  %167 = and i32 %166, 2
  %168 = icmp ne i32 %167, 0
  br i1 %168, label %169, label %174

169:                                              ; preds = %165, %160
  %170 = load ptr, ptr %7, align 8, !tbaa !22
  %171 = getelementptr inbounds nuw %struct.AVStream, ptr %170, i32 0, i32 10
  %172 = load i32, ptr %171, align 4, !tbaa !133
  %173 = icmp sge i32 %172, 48
  br i1 %173, label %174, label %176

174:                                              ; preds = %169, %165
  %175 = load ptr, ptr %5, align 8, !tbaa !85
  call void @av_packet_unref(ptr noundef %175)
  br label %177

176:                                              ; preds = %169
  br label %178

177:                                              ; preds = %174
  br label %20

178:                                              ; preds = %176
  store i32 0, ptr %3, align 4
  store i32 1, ptr %15, align 4
  br label %179

179:                                              ; preds = %178, %140, %122, %118, %94, %47
  call void @llvm.lifetime.end.p0(i64 4, ptr %14) #10
  call void @llvm.lifetime.end.p0(i64 8, ptr %13) #10
  call void @llvm.lifetime.end.p0(i64 8, ptr %12) #10
  call void @llvm.lifetime.end.p0(i64 8, ptr %11) #10
  call void @llvm.lifetime.end.p0(i64 4, ptr %10) #10
  call void @llvm.lifetime.end.p0(i64 4, ptr %9) #10
  call void @llvm.lifetime.end.p0(i64 4, ptr %8) #10
  call void @llvm.lifetime.end.p0(i64 8, ptr %7) #10
  call void @llvm.lifetime.end.p0(i64 8, ptr %6) #10
  %180 = load i32, ptr %3, align 4
  ret i32 %180
}