; Function Attrs: nounwind uwtable
define internal range(i32 -2147483648, 1) i32 @rm_read_packet(ptr noundef %0, ptr noundef %1) #0 {
  %3 = alloca i32, align 4
  %4 = alloca i32, align 4
  %5 = alloca i64, align 8
  %6 = alloca i64, align 8
  %7 = alloca i32, align 4
  %8 = getelementptr inbounds nuw i8, ptr %0, i64 24
  %9 = load ptr, ptr %8, align 8, !tbaa !71
  call void @llvm.lifetime.start.p0(i64 4, ptr nonnull %3) #12
  call void @llvm.lifetime.start.p0(i64 4, ptr nonnull %4) #12
  store i32 1, ptr %4, align 4, !tbaa !61
  call void @llvm.lifetime.start.p0(i64 8, ptr nonnull %5) #12
  call void @llvm.lifetime.start.p0(i64 8, ptr nonnull %6) #12
  call void @llvm.lifetime.start.p0(i64 4, ptr nonnull %7) #12
  %10 = getelementptr inbounds nuw i8, ptr %0, i64 48
  %11 = getelementptr inbounds nuw i8, ptr %9, i64 20
  %12 = getelementptr inbounds nuw i8, ptr %9, i64 16
  %13 = getelementptr inbounds nuw i8, ptr %0, i64 32
  %14 = getelementptr inbounds nuw i8, ptr %9, i64 4
  br label %.backedge

.backedge:                                        ; preds = %.backedge.backedge, %2
  %.040 = phi ptr [ null, %2 ], [ %.040.be, %.backedge.backedge ]
  %15 = load i32, ptr %11, align 4, !tbaa !90
  %.not = icmp eq i32 %15, 0
  br i1 %.not, label %28, label %16

16:                                               ; preds = %.backedge
  %17 = load ptr, ptr %10, align 8, !tbaa !107
  %18 = load i32, ptr %12, align 4, !tbaa !89
  %19 = sext i32 %18 to i64
  %20 = getelementptr inbounds ptr, ptr %17, i64 %19
  %21 = load ptr, ptr %20, align 8, !tbaa !108
  %22 = load ptr, ptr %13, align 8, !tbaa !98
  %23 = getelementptr inbounds nuw i8, ptr %21, i64 24
  %24 = load ptr, ptr %23, align 8, !tbaa !100
  %25 = tail call i32 @ff_rm_retrieve_cache(ptr noundef nonnull %0, ptr noundef %22, ptr noundef %21, ptr noundef %24, ptr noundef %1)
  %26 = icmp slt i32 %25, 0
  br i1 %26, label %.critedge, label %27

27:                                               ; preds = %16
  store i32 0, ptr %7, align 4, !tbaa !61
  br label %88

28:                                               ; preds = %.backedge
  %29 = load i32, ptr %14, align 4, !tbaa !99
  %.not48 = icmp eq i32 %29, 0
  br i1 %.not48, label %54, label %30

30:                                               ; preds = %28
  %31 = load ptr, ptr %10, align 8, !tbaa !107
  %32 = load ptr, ptr %31, align 8, !tbaa !108
  %33 = getelementptr inbounds nuw i8, ptr %32, i64 24
  %34 = load ptr, ptr %33, align 8, !tbaa !100
  store i64 -9223372036854775808, ptr %5, align 8, !tbaa !110
  %35 = getelementptr inbounds nuw i8, ptr %34, i64 160
  %36 = load i32, ptr %35, align 8, !tbaa !70
  %.not49 = icmp eq i32 %36, 0
  br i1 %.not49, label %.thread, label %37

37:                                               ; preds = %30
  %38 = getelementptr inbounds nuw i8, ptr %34, i64 156
  %39 = load i32, ptr %38, align 4, !tbaa !64
  %40 = sext i32 %39 to i64
  %41 = getelementptr inbounds nuw i8, ptr %34, i64 152
  %42 = load i32, ptr %41, align 8, !tbaa !65
  %43 = sext i32 %42 to i64
  %44 = mul nsw i64 %43, %40
  %45 = sdiv i64 %44, 2
  %46 = icmp slt i64 %44, 4294967296
  br i1 %46, label %.thread, label %.critedge

.thread:                                          ; preds = %30, %37
  %47 = phi i64 [ %45, %37 ], [ 1000, %30 ]
  %48 = load i32, ptr %4, align 4, !tbaa !61
  %49 = add nsw i32 %48, 1
  store i32 %49, ptr %4, align 4, !tbaa !61
  %50 = icmp eq i32 %48, 1
  %51 = select i1 %50, i32 2, i32 0
  store i32 %51, ptr %7, align 4, !tbaa !61
  %52 = load ptr, ptr %13, align 8, !tbaa !98
  %53 = tail call i64 @avio_seek(ptr noundef %52, i64 noundef 0, i32 noundef 1) #12
  store i64 %53, ptr %6, align 8, !tbaa !110
  br label %64

54:                                               ; preds = %28
  %55 = call fastcc i32 @rm_sync(ptr noundef nonnull %0, ptr noundef %5, ptr noundef %7, ptr noundef %3, ptr noundef %6)
  %56 = sext i32 %55 to i64
  %57 = icmp sgt i32 %55, 0
  br i1 %57, label %58, label %64

58:                                               ; preds = %54
  %59 = load ptr, ptr %10, align 8, !tbaa !107
  %60 = load i32, ptr %3, align 4, !tbaa !61
  %61 = sext i32 %60 to i64
  %62 = getelementptr inbounds ptr, ptr %59, i64 %61
  %63 = load ptr, ptr %62, align 8, !tbaa !108
  br label %64

64:                                               ; preds = %.thread, %54, %58
  %.242 = phi ptr [ %32, %.thread ], [ %63, %58 ], [ %.040, %54 ]
  %.039 = phi i64 [ %47, %.thread ], [ %56, %58 ], [ %56, %54 ]
  %65 = load ptr, ptr %13, align 8, !tbaa !98
  %66 = tail call i32 @avio_feof(ptr noundef %65) #12
  %.not50 = icmp eq i32 %66, 0
  br i1 %.not50, label %67, label %.critedge

67:                                               ; preds = %64
  %68 = icmp slt i64 %.039, 1
  br i1 %68, label %.critedge, label %69

69:                                               ; preds = %67
  %70 = load ptr, ptr %13, align 8, !tbaa !98
  %71 = getelementptr inbounds nuw i8, ptr %.242, i64 24
  %72 = load ptr, ptr %71, align 8, !tbaa !100
  %73 = trunc nuw nsw i64 %.039 to i32
  %74 = load i32, ptr %7, align 4, !tbaa !61
  %75 = load i64, ptr %5, align 8, !tbaa !110
  %76 = call i32 @ff_rm_parse_packet(ptr noundef nonnull %0, ptr noundef %70, ptr noundef %.242, ptr noundef %72, i32 noundef %73, ptr noundef %1, ptr noundef nonnull %4, i32 noundef %74, i64 noundef %75)
  %77 = icmp slt i32 %76, -1
  br i1 %77, label %.critedge, label %78

78:                                               ; preds = %69
  %79 = and i32 %74, 2
  %.not51 = icmp eq i32 %79, 0
  br i1 %.not51, label %87, label %80

80:                                               ; preds = %78
  %81 = load i32, ptr %4, align 4, !tbaa !61
  %82 = and i32 %81, 127
  %83 = icmp eq i32 %82, 1
  br i1 %83, label %84, label %87

84:                                               ; preds = %80
  %85 = load i64, ptr %6, align 8, !tbaa !110
  %86 = tail call i32 @av_add_index_entry(ptr noundef nonnull %.242, i64 noundef %85, i64 noundef %75, i32 noundef 0, i32 noundef 0, i32 noundef 1) #12
  br label %87

87:                                               ; preds = %84, %80, %78
  %.not52 = icmp eq i32 %76, 0
  br i1 %.not52, label %88, label %.backedge.backedge

88:                                               ; preds = %87, %27
  %89 = phi i32 [ 0, %27 ], [ %74, %87 ]
  %.141 = phi ptr [ %21, %27 ], [ %.242, %87 ]
  %90 = getelementptr inbounds nuw i8, ptr %.141, i64 68
  %91 = load i32, ptr %90, align 4, !tbaa !111
  %92 = icmp sgt i32 %91, 31
  br i1 %92, label %93, label %.critedge

93:                                               ; preds = %88
  %94 = and i32 %89, 2
  %.not53 = icmp eq i32 %94, 0
  %95 = icmp samesign ugt i32 %91, 47
  %or.cond = select i1 %.not53, i1 true, i1 %95
  br i1 %or.cond, label %96, label %.critedge

96:                                               ; preds = %93
  tail call void @av_packet_unref(ptr noundef %1) #12
  br label %.backedge.backedge

.backedge.backedge:                               ; preds = %96, %87
  %.040.be = phi ptr [ %.141, %96 ], [ %.242, %87 ]
  br label %.backedge

.critedge:                                        ; preds = %93, %88, %37, %69, %67, %64, %16
  %.1 = phi i32 [ %25, %16 ], [ -541478725, %64 ], [ -5, %67 ], [ %76, %69 ], [ -1094995529, %37 ], [ 0, %88 ], [ 0, %93 ]
  call void @llvm.lifetime.end.p0(i64 4, ptr nonnull %7) #12
  call void @llvm.lifetime.end.p0(i64 8, ptr nonnull %6) #12
  call void @llvm.lifetime.end.p0(i64 8, ptr nonnull %5) #12
  call void @llvm.lifetime.end.p0(i64 4, ptr nonnull %4) #12
  call void @llvm.lifetime.end.p0(i64 4, ptr nonnull %3) #12
  ret i32 %.1
}